target datalayout = "e-m:e-p270:32:32-p271:32:32-p272:64:64-i64:64-i128:128-f80:128-n8:16:32:64-S128"
target triple = "x86_64-pc-linux-gnu"

@.str = private unnamed_addr constant [13 x i8] c"dot11decrypt\00", align 1
@.str.1 = private unnamed_addr constant [31 x i8] c"epan/crypt/dot11decrypt_util.c\00", align 1
@__func__.dot11decrypt_prf = private unnamed_addr constant [17 x i8] c"dot11decrypt_prf\00", align 1
@.str.2 = private unnamed_addr constant [30 x i8] c"Invalid input or output sizes\00", align 1

; Function Attrs: nounwind uwtable
define hidden zeroext i1 @dot11decrypt_prf(ptr noundef %0, i64 noundef %1, ptr noundef %2, ptr noundef %3, i64 noundef %4, i32 noundef %5, ptr noundef %6, i64 noundef %7) #0 {
  %9 = alloca i1, align 1
  %10 = alloca ptr, align 8
  %11 = alloca i64, align 8
  %12 = alloca ptr, align 8
  %13 = alloca ptr, align 8
  %14 = alloca i64, align 8
  %15 = alloca i32, align 4
  %16 = alloca ptr, align 8
  %17 = alloca i64, align 8
  %18 = alloca [256 x i8], align 16
  %19 = alloca i64, align 8
  %20 = alloca [1024 x i8], align 16
  %21 = alloca i16, align 2
  %22 = alloca i64, align 8
  %23 = alloca i8, align 1
  store ptr %0, ptr %10, align 8
  store i64 %1, ptr %11, align 8
  store ptr %2, ptr %12, align 8
  store ptr %3, ptr %13, align 8
  store i64 %4, ptr %14, align 8
  store i32 %5, ptr %15, align 4
  store ptr %6, ptr %16, align 8
  store i64 %7, ptr %17, align 8
  %24 = load ptr, ptr %12, align 8
  %25 = call i64 @strlen(ptr noundef %24) #4
  store i64 %25, ptr %19, align 8
  %26 = load i32, ptr %15, align 4
  %27 = call i32 @gcry_md_get_algo_dlen(i32 noundef %26)
  %28 = trunc i32 %27 to i16
  store i16 %28, ptr %21, align 2
  store i64 0, ptr %22, align 8
  %29 = load ptr, ptr %10, align 8
  %30 = icmp ne ptr %29, null
  br i1 %30, label %31, label %40

31:                                               ; preds = %8
  %32 = load ptr, ptr %12, align 8
  %33 = icmp ne ptr %32, null
  br i1 %33, label %34, label %40

34:                                               ; preds = %31
  %35 = load ptr, ptr %13, align 8
  %36 = icmp ne ptr %35, null
  br i1 %36, label %37, label %40

37:                                               ; preds = %34
  %38 = load ptr, ptr %16, align 8
  %39 = icmp ne ptr %38, null
  br i1 %39, label %41, label %40

40:                                               ; preds = %37, %34, %31, %8
  store i1 false, ptr %9, align 1
  br label %110

41:                                               ; preds = %37
  %42 = load i64, ptr %19, align 8
  %43 = add i64 %42, 1
  %44 = load i64, ptr %14, align 8
  %45 = add i64 %43, %44
  %46 = add i64 %45, 1
  %47 = icmp ugt i64 %46, 256
  br i1 %47, label %51, label %48

48:                                               ; preds = %41
  %49 = load i64, ptr %17, align 8
  %50 = icmp ugt i64 %49, 64
  br i1 %50, label %51, label %54

51:                                               ; preds = %48, %41
  br label %52

52:                                               ; preds = %51
  call void (ptr, i32, ptr, i64, ptr, ptr, ...) @ws_log_full(ptr noundef @.str, i32 noundef 5, ptr noundef @.str.1, i64 noundef 133, ptr noundef @__func__.dot11decrypt_prf, ptr noundef @.str.2)
  br label %53

53:                                               ; preds = %52
  store i1 false, ptr %9, align 1
  br label %110

54:                                               ; preds = %48
  %55 = getelementptr inbounds [256 x i8], ptr %18, i64 0, i64 0
  %56 = load i64, ptr %22, align 8
  %57 = getelementptr i8, ptr %55, i64 %56
  %58 = load ptr, ptr %12, align 8
  %59 = load i64, ptr %19, align 8
  call void @llvm.memcpy.p0.p0.i64(ptr align 1 %57, ptr align 1 %58, i64 %59, i1 false)
  %60 = load i64, ptr %19, align 8
  %61 = load i64, ptr %22, align 8
  %62 = add i64 %61, %60
  store i64 %62, ptr %22, align 8
  %63 = load i64, ptr %22, align 8
  %64 = add i64 %63, 1
  store i64 %64, ptr %22, align 8
  %65 = getelementptr [256 x i8], ptr %18, i64 0, i64 %63
  store i8 0, ptr %65, align 1
  %66 = getelementptr inbounds [256 x i8], ptr %18, i64 0, i64 0
  %67 = load i64, ptr %22, align 8
  %68 = getelementptr i8, ptr %66, i64 %67
  %69 = load ptr, ptr %13, align 8
  %70 = load i64, ptr %14, align 8
  call void @llvm.memcpy.p0.p0.i64(ptr align 1 %68, ptr align 1 %69, i64 %70, i1 false)
  %71 = load i64, ptr %14, align 8
  %72 = load i64, ptr %22, align 8
  %73 = add i64 %72, %71
  store i64 %73, ptr %22, align 8
  store i8 0, ptr %23, align 1
  br label %74

74:                                               ; preds = %103, %54
  %75 = load i8, ptr %23, align 1
  %76 = zext i8 %75 to i64
  %77 = load i64, ptr %17, align 8
  %78 = mul i64 %77, 8
  %79 = udiv i64 %78, 160
  %80 = icmp ule i64 %76, %79
  br i1 %80, label %81, label %106

81:                                               ; preds = %74
  %82 = load i8, ptr %23, align 1
  %83 = load i64, ptr %22, align 8
  %84 = getelementptr [256 x i8], ptr %18, i64 0, i64 %83
  store i8 %82, ptr %84, align 1
  %85 = load i32, ptr %15, align 4
  %86 = getelementptr inbounds [1024 x i8], ptr %20, i64 0, i64 0
  %87 = load i16, ptr %21, align 2
  %88 = zext i16 %87 to i32
  %89 = load i8, ptr %23, align 1
  %90 = zext i8 %89 to i32
  %91 = mul i32 %88, %90
  %92 = sext i32 %91 to i64
  %93 = getelementptr i8, ptr %86, i64 %92
  %94 = getelementptr inbounds [256 x i8], ptr %18, i64 0, i64 0
  %95 = load i64, ptr %22, align 8
  %96 = add i64 %95, 1
  %97 = load ptr, ptr %10, align 8
  %98 = load i64, ptr %11, align 8
  %99 = call i32 @ws_hmac_buffer(i32 noundef %85, ptr noundef %93, ptr noundef %94, i64 noundef %96, ptr noundef %97, i64 noundef %98)
  %100 = icmp ne i32 %99, 0
  br i1 %100, label %101, label %102

101:                                              ; preds = %81
  store i1 false, ptr %9, align 1
  br label %110

102:                                              ; preds = %81
  br label %103

103:                                              ; preds = %102
  %104 = load i8, ptr %23, align 1
  %105 = add i8 %104, 1
  store i8 %105, ptr %23, align 1
  br label %74, !llvm.loop !4

106:                                              ; preds = %74
  %107 = load ptr, ptr %16, align 8
  %108 = getelementptr inbounds [1024 x i8], ptr %20, i64 0, i64 0
  %109 = load i64, ptr %17, align 8
  call void @llvm.memcpy.p0.p0.i64(ptr align 1 %107, ptr align 16 %108, i64 %109, i1 false)
  store i1 true, ptr %9, align 1
  br label %110

110:                                              ; preds = %106, %101, %53, %40
  %111 = load i1, ptr %9, align 1
  ret i1 %111
}