; Function Attrs: nounwind uwtable
define hidden noundef zeroext i1 @dot11decrypt_prf(ptr noundef %0, i64 noundef %1, ptr noundef readonly captures(none) %2, ptr noundef readonly %3, i64 noundef %4, i32 noundef %5, ptr noundef writeonly %6, i64 noundef %7) local_unnamed_addr #2 {
  %9 = alloca [256 x i8], align 16
  %10 = alloca [1024 x i8], align 16
  %11 = tail call i64 @strlen(ptr noundef nonnull dereferenceable(1) %2) #6
  %12 = tail call i32 @gcry_md_get_algo_dlen(i32 noundef %5) #7
  %13 = icmp ne ptr %0, null
  %14 = icmp ne ptr %3, null
  %or.cond3 = and i1 %13, %14
  %15 = icmp ne ptr %6, null
  %or.cond5 = and i1 %or.cond3, %15
  br i1 %or.cond5, label %16, label %.loopexit

16:                                               ; preds = %8
  %17 = add i64 %11, 1
  %18 = add i64 %17, %4
  %19 = add i64 %18, 1
  %20 = icmp ugt i64 %19, 256
  %21 = icmp ugt i64 %7, 64
  %or.cond7 = or i1 %21, %20
  br i1 %or.cond7, label %22, label %23

22:                                               ; preds = %16
  tail call void (ptr, i32, ptr, i64, ptr, ptr, ...) @ws_log_full(ptr noundef nonnull @.str, i32 noundef 5, ptr noundef nonnull @.str.1, i64 noundef 133, ptr noundef nonnull @__func__.dot11decrypt_prf, ptr noundef nonnull @.str.2) #7
  br label %.loopexit

23:                                               ; preds = %16
  call void @llvm.memcpy.p0.p0.i64(ptr nonnull align 16 %9, ptr nonnull align 1 %2, i64 %11, i1 false)
  %24 = getelementptr [256 x i8], ptr %9, i64 0, i64 %11
  store i8 0, ptr %24, align 1
  %25 = getelementptr i8, ptr %9, i64 %17
  call void @llvm.memcpy.p0.p0.i64(ptr align 1 %25, ptr nonnull align 1 %3, i64 %4, i1 false)
  %.lhs.trunc = trunc nuw i64 %7 to i8
  %26 = udiv i8 %.lhs.trunc, 20
  %27 = getelementptr [256 x i8], ptr %9, i64 0, i64 %18
  %28 = and i32 %12, 65535
  br label %31

29:                                               ; preds = %31
  %30 = add i8 %.048, 1
  %.not = icmp ugt i8 %30, %26
  br i1 %.not, label %37, label %31, !llvm.loop !4

31:                                               ; preds = %23, %29
  %.048 = phi i8 [ 0, %23 ], [ %30, %29 ]
  store i8 %.048, ptr %27, align 1
  %32 = zext i8 %.048 to i32
  %33 = mul nuw nsw i32 %28, %32
  %34 = zext nneg i32 %33 to i64
  %35 = getelementptr i8, ptr %10, i64 %34
  %36 = call i32 @ws_hmac_buffer(i32 noundef %5, ptr noundef %35, ptr noundef nonnull %9, i64 noundef %19, ptr noundef nonnull %0, i64 noundef %1) #7
  %.not47 = icmp eq i32 %36, 0
  br i1 %.not47, label %29, label %.loopexit

37:                                               ; preds = %29
  call void @llvm.memcpy.p0.p0.i64(ptr nonnull align 1 %6, ptr nonnull align 16 %10, i64 %7, i1 false)
  br label %.loopexit

.loopexit:                                        ; preds = %31, %8, %37, %22
  %.040 = phi i1 [ false, %22 ], [ true, %37 ], [ false, %8 ], [ false, %31 ]
  ret i1 %.040
}